target datalayout = "e-m:e-p270:32:32-p271:32:32-p272:64:64-i64:64-i128:128-f80:128-n8:16:32:64-S128"
target triple = "x86_64-pc-linux-gnu"

%struct.PJconsts = type <{ ptr, ptr, ptr, ptr, ptr, ptr, ptr, ptr, ptr, ptr, ptr, ptr, i32, [4 x i8], ptr, ptr, ptr, ptr, ptr, ptr, ptr, ptr, double, double, double, double, double, double, double, double, double, double, double, double, double, double, double, double, double, double, double, double, double, double, i32, i32, i32, i32, i32, i32, i32, i32, i32, i32, i32, [4 x i8], ptr, ptr, ptr, ptr, ptr, ptr, double, double, double, double, double, double, double, double, double, double, double, i32, [4 x i8], [7 x double], i32, [4 x i8], ptr, ptr, double, double, i32, [4 x i8], %"class.std::shared_ptr", i8, [7 x i8], double, i8, [7 x i8], %"class.std::__cxx11::basic_string", %"class.std::__cxx11::basic_string", %"class.std::__cxx11::basic_string", i8, [7 x i8], %"class.std::vector", i32, [4 x i8], %"class.std::vector.3", i32, i8, i8, i8, i8 }>
%"class.std::shared_ptr" = type { %"class.std::__shared_ptr" }
%"class.std::__shared_ptr" = type { ptr, %"class.std::__shared_count" }
%"class.std::__shared_count" = type { ptr }
%"class.std::__cxx11::basic_string" = type { %"struct.std::__cxx11::basic_string<char>::_Alloc_hider", i64, %union.anon }
%"struct.std::__cxx11::basic_string<char>::_Alloc_hider" = type { ptr }
%union.anon = type { i64, [8 x i8] }
%"class.std::vector" = type { %"struct.std::_Vector_base" }
%"struct.std::_Vector_base" = type { %"struct.std::_Vector_base<osgeo::proj::operation::GridDescription, std::allocator<osgeo::proj::operation::GridDescription>>::_Vector_impl" }
%"struct.std::_Vector_base<osgeo::proj::operation::GridDescription, std::allocator<osgeo::proj::operation::GridDescription>>::_Vector_impl" = type { %"struct.std::_Vector_base<osgeo::proj::operation::GridDescription, std::allocator<osgeo::proj::operation::GridDescription>>::_Vector_impl_data" }
%"struct.std::_Vector_base<osgeo::proj::operation::GridDescription, std::allocator<osgeo::proj::operation::GridDescription>>::_Vector_impl_data" = type { ptr, ptr, ptr }
%"class.std::vector.3" = type { %"struct.std::_Vector_base.4" }
%"struct.std::_Vector_base.4" = type { %"struct.std::_Vector_base<PJCoordOperation, std::allocator<PJCoordOperation>>::_Vector_impl" }
%"struct.std::_Vector_base<PJCoordOperation, std::allocator<PJCoordOperation>>::_Vector_impl" = type { %"struct.std::_Vector_base<PJCoordOperation, std::allocator<PJCoordOperation>>::_Vector_impl_data" }
%"struct.std::_Vector_base<PJCoordOperation, std::allocator<PJCoordOperation>>::_Vector_impl_data" = type { ptr, ptr, ptr }
%"struct.(anonymous namespace)::pj_putp4p_data" = type { double, double }
%struct.PJ_LP = type { double, double }
%struct.PJ_XY = type { double, double }

; Function Attrs: mustprogress uwtable
define internal { double, double } @_ZL16putp4p_s_inverse5PJ_XYP8PJconsts(double %0, double %1, ptr noundef %2) #0 {
  %4 = alloca %struct.PJ_LP, align 8
  %5 = alloca %struct.PJ_XY, align 8
  %6 = alloca ptr, align 8
  %7 = alloca ptr, align 8
  %8 = getelementptr inbounds { double, double }, ptr %5, i32 0, i32 0
  store double %0, ptr %8, align 8
  %9 = getelementptr inbounds { double, double }, ptr %5, i32 0, i32 1
  store double %1, ptr %9, align 8
  store ptr %2, ptr %6, align 8
  call void @llvm.memset.p0.i64(ptr align 8 %4, i8 0, i64 16, i1 false)
  %10 = load ptr, ptr %6, align 8
  %11 = getelementptr inbounds %struct.PJconsts, ptr %10, i32 0, i32 11
  %12 = load ptr, ptr %11, align 8
  store ptr %12, ptr %7, align 8
  %13 = load ptr, ptr %6, align 8
  %14 = getelementptr inbounds %struct.PJconsts, ptr %13, i32 0, i32 0
  %15 = load ptr, ptr %14, align 8
  %16 = getelementptr inbounds %struct.PJ_XY, ptr %5, i32 0, i32 1
  %17 = load double, ptr %16, align 8
  %18 = load ptr, ptr %7, align 8
  %19 = getelementptr inbounds %"struct.(anonymous namespace)::pj_putp4p_data", ptr %18, i32 0, i32 1
  %20 = load double, ptr %19, align 8
  %21 = fdiv double %17, %20
  %22 = call noundef double @_Z5aasinP6pj_ctxd(ptr noundef %15, double noundef %21)
  %23 = getelementptr inbounds %struct.PJ_LP, ptr %4, i32 0, i32 1
  store double %22, ptr %23, align 8
  %24 = getelementptr inbounds %struct.PJ_XY, ptr %5, i32 0, i32 0
  %25 = load double, ptr %24, align 8
  %26 = getelementptr inbounds %struct.PJ_LP, ptr %4, i32 0, i32 1
  %27 = load double, ptr %26, align 8
  %28 = call double @cos(double noundef %27) #6
  %29 = fmul double %25, %28
  %30 = load ptr, ptr %7, align 8
  %31 = getelementptr inbounds %"struct.(anonymous namespace)::pj_putp4p_data", ptr %30, i32 0, i32 0
  %32 = load double, ptr %31, align 8
  %33 = fdiv double %29, %32
  %34 = getelementptr inbounds %struct.PJ_LP, ptr %4, i32 0, i32 0
  store double %33, ptr %34, align 8
  %35 = getelementptr inbounds %struct.PJ_LP, ptr %4, i32 0, i32 1
  %36 = load double, ptr %35, align 8
  %37 = fmul double %36, 3.000000e+00
  store double %37, ptr %35, align 8
  %38 = getelementptr inbounds %struct.PJ_LP, ptr %4, i32 0, i32 1
  %39 = load double, ptr %38, align 8
  %40 = call double @cos(double noundef %39) #6
  %41 = getelementptr inbounds %struct.PJ_LP, ptr %4, i32 0, i32 0
  %42 = load double, ptr %41, align 8
  %43 = fdiv double %42, %40
  store double %43, ptr %41, align 8
  %44 = load ptr, ptr %6, align 8
  %45 = getelementptr inbounds %struct.PJconsts, ptr %44, i32 0, i32 0
  %46 = load ptr, ptr %45, align 8
  %47 = getelementptr inbounds %struct.PJ_LP, ptr %4, i32 0, i32 1
  %48 = load double, ptr %47, align 8
  %49 = call double @sin(double noundef %48) #6
  %50 = fmul double 0x3FF21A1852065D11, %49
  %51 = call noundef double @_Z5aasinP6pj_ctxd(ptr noundef %46, double noundef %50)
  %52 = getelementptr inbounds %struct.PJ_LP, ptr %4, i32 0, i32 1
  store double %51, ptr %52, align 8
  %53 = load { double, double }, ptr %4, align 8
  ret { double, double } %53
}