; Function Attrs: mustprogress uwtable
define internal { double, double } @_ZL16putp4p_s_inverse5PJ_XYP8PJconsts(double %0, double %1, ptr nocapture noundef readonly %2) #0 {
  %4 = getelementptr inbounds i8, ptr %2, i64 88
  %5 = load ptr, ptr %4, align 8
  %6 = load ptr, ptr %2, align 8
  %7 = getelementptr inbounds i8, ptr %5, i64 8
  %8 = load double, ptr %7, align 8
  %9 = fdiv double %1, %8
  %10 = tail call noundef double @_Z5aasinP6pj_ctxd(ptr noundef %6, double noundef %9)
  %11 = tail call double @cos(double noundef %10) #5
  %12 = fmul double %11, %0
  %13 = load double, ptr %5, align 8
  %14 = fdiv double %12, %13
  %15 = fmul double %10, 3.000000e+00
  %16 = tail call double @cos(double noundef %15) #5
  %17 = fdiv double %14, %16
  %18 = load ptr, ptr %2, align 8
  %19 = tail call double @sin(double noundef %15) #5
  %20 = fmul double %19, 0x3FF21A1852065D11
  %21 = tail call noundef double @_Z5aasinP6pj_ctxd(ptr noundef %18, double noundef %20)
  %.fca.0.insert = insertvalue { double, double } poison, double %17, 0
  %.fca.1.insert = insertvalue { double, double } %.fca.0.insert, double %21, 1
  ret { double, double } %.fca.1.insert
}